target datalayout = "e-m:e-p270:32:32-p271:32:32-p272:64:64-i64:64-i128:128-f80:128-n8:16:32:64-S128"
target triple = "x86_64-pc-linux-gnu"

%"struct.gmx::MrcDensityMapHeader" = type { i32, i32, %"struct.std::array", %"struct.std::array.0", %"struct.gmx::CrystallographicLabels", %"struct.std::array.3", %"struct.std::array.3", %"struct.std::array.4", %"struct.std::array.4", %"struct.std::array.4", %"struct.std::array.4", %"struct.gmx::MrcDataStatistics", %"struct.gmx::MrcDensitySkewData", %"class.std::vector" }
%"struct.std::array" = type { [4 x i8] }
%"struct.std::array.0" = type { [15 x float] }
%"struct.gmx::CrystallographicLabels" = type { i32, %"struct.std::array.1" }
%"struct.std::array.1" = type { [10 x %"struct.std::array.2"] }
%"struct.std::array.2" = type { [80 x i8] }
%"struct.std::array.3" = type { [3 x float] }
%"struct.std::array.4" = type { [3 x i32] }
%"struct.gmx::MrcDataStatistics" = type { float, float, float, float }
%"struct.gmx::MrcDensitySkewData" = type { i8, %"struct.std::array.5", %"struct.std::array.3" }
%"struct.std::array.5" = type { [9 x float] }
%"class.std::vector" = type { %"struct.std::_Vector_base" }
%"struct.std::_Vector_base" = type { %"struct.std::_Vector_base<unsigned char, std::allocator<unsigned char>>::_Vector_impl" }
%"struct.std::_Vector_base<unsigned char, std::allocator<unsigned char>>::_Vector_impl" = type { %"struct.std::_Vector_base<unsigned char, std::allocator<unsigned char>>::_Vector_impl_data" }
%"struct.std::_Vector_base<unsigned char, std::allocator<unsigned char>>::_Vector_impl_data" = type { ptr, ptr, ptr }

; Function Attrs: mustprogress nounwind uwtable
define linkonce_odr void @_ZNSt15__new_allocatorIhE10deallocateEPhm(ptr noundef nonnull align 1 dereferenceable(1) %0, ptr noundef %1, i64 noundef %2) #5 comdat align 2 {
  %4 = alloca ptr, align 8
  %5 = alloca ptr, align 8
  %6 = alloca i64, align 8
  store ptr %0, ptr %4, align 8, !tbaa !39
  store ptr %1, ptr %5, align 8, !tbaa !21
  store i64 %2, ptr %6, align 8, !tbaa !37
  %7 = load ptr, ptr %5, align 8, !tbaa !21
  %8 = load i64, ptr %6, align 8, !tbaa !37
  %9 = mul i64 %8, 1
  call void @_ZdlPvm(ptr noundef %7, i64 noundef %9) #18
  ret void
}

; Function Attrs: mustprogress nounwind uwtable
define linkonce_odr void @_ZNSt15__new_allocatorIhEC2Ev(ptr noundef nonnull align 1 dereferenceable(1) %0) unnamed_addr #5 comdat align 2 {
  %2 = alloca ptr, align 8
  store ptr %0, ptr %2, align 8, !tbaa !39
  ret void
}

; Function Attrs: mustprogress uwtable
define linkonce_odr void @_ZNSt16allocator_traitsISaIhEE10deallocateERS0_Phm(ptr noundef nonnull align 1 dereferenceable(1) %0, ptr noundef %1, i64 noundef %2) #0 comdat align 2 {
  %4 = alloca ptr, align 8
  %5 = alloca ptr, align 8
  %6 = alloca i64, align 8
  store ptr %0, ptr %4, align 8, !tbaa !33
  store ptr %1, ptr %5, align 8, !tbaa !21
  store i64 %2, ptr %6, align 8, !tbaa !37
  %7 = load ptr, ptr %4, align 8, !tbaa !33
  %8 = load ptr, ptr %5, align 8, !tbaa !21
  %9 = load i64, ptr %6, align 8, !tbaa !37
  call void @_ZNSt15__new_allocatorIhE10deallocateEPhm(ptr noundef nonnull align 1 dereferenceable(1) %7, ptr noundef %8, i64 noundef %9)
  ret void
}

; Function Attrs: mustprogress nounwind uwtable
define linkonce_odr void @_ZNSt12_Destroy_auxILb1EE9__destroyIPhEEvT_S3_(ptr noundef %0, ptr noundef %1) #5 comdat align 2 {
  %3 = alloca ptr, align 8
  %4 = alloca ptr, align 8
  store ptr %0, ptr %3, align 8, !tbaa !21
  store ptr %1, ptr %4, align 8, !tbaa !21
  ret void
}

; Function Attrs: mustprogress nounwind uwtable
define linkonce_odr void @_ZNSt12_Vector_baseIhSaIhEE17_Vector_impl_dataC2Ev(ptr noundef nonnull align 8 dereferenceable(24) %0) unnamed_addr #5 comdat align 2 {
  %2 = alloca ptr, align 8
  store ptr %0, ptr %2, align 8, !tbaa !45
  %3 = load ptr, ptr %2, align 8
  %4 = getelementptr inbounds nuw %"struct.std::_Vector_base<unsigned char, std::allocator<unsigned char>>::_Vector_impl_data", ptr %3, i32 0, i32 0
  store ptr null, ptr %4, align 8, !tbaa !30
  %5 = getelementptr inbounds nuw %"struct.std::_Vector_base<unsigned char, std::allocator<unsigned char>>::_Vector_impl_data", ptr %3, i32 0, i32 1
  store ptr null, ptr %5, align 8, !tbaa !32
  %6 = getelementptr inbounds nuw %"struct.std::_Vector_base<unsigned char, std::allocator<unsigned char>>::_Vector_impl_data", ptr %3, i32 0, i32 2
  store ptr null, ptr %6, align 8, !tbaa !42
  ret void
}

; Function Attrs: mustprogress nounwind uwtable
define linkonce_odr void @_ZNSaIhEC2Ev(ptr noundef nonnull align 1 dereferenceable(1) %0) unnamed_addr #5 comdat align 2 {
  %2 = alloca ptr, align 8
  store ptr %0, ptr %2, align 8, !tbaa !33
  %3 = load ptr, ptr %2, align 8
  call void @_ZNSt15__new_allocatorIhEC2Ev(ptr noundef nonnull align 1 dereferenceable(1) %3) #13
  ret void
}

; Function Attrs: mustprogress nounwind uwtable
define linkonce_odr void @_ZNSt15__new_allocatorIhED2Ev(ptr noundef nonnull align 1 dereferenceable(1) %0) unnamed_addr #5 comdat align 2 {
  %2 = alloca ptr, align 8
  store ptr %0, ptr %2, align 8, !tbaa !39
  ret void
}

; Function Attrs: mustprogress uwtable
define linkonce_odr void @_ZNSt12_Vector_baseIhSaIhEE13_M_deallocateEPhm(ptr noundef nonnull align 8 dereferenceable(24) %0, ptr noundef %1, i64 noundef %2) #0 comdat align 2 {
  %4 = alloca ptr, align 8
  %5 = alloca ptr, align 8
  %6 = alloca i64, align 8
  store ptr %0, ptr %4, align 8, !tbaa !35
  store ptr %1, ptr %5, align 8, !tbaa !21
  store i64 %2, ptr %6, align 8, !tbaa !37
  %7 = load ptr, ptr %4, align 8
  %8 = load ptr, ptr %5, align 8, !tbaa !21
  %9 = icmp ne ptr %8, null
  br i1 %9, label %10, label %14

10:                                               ; preds = %3
  %11 = getelementptr inbounds nuw %"struct.std::_Vector_base", ptr %7, i32 0, i32 0
  %12 = load ptr, ptr %5, align 8, !tbaa !21
  %13 = load i64, ptr %6, align 8, !tbaa !37
  call void @_ZNSt16allocator_traitsISaIhEE10deallocateERS0_Phm(ptr noundef nonnull align 1 dereferenceable(1) %11, ptr noundef %12, i64 noundef %13)
  br label %14

14:                                               ; preds = %10, %3
  ret void
}

; Function Attrs: inlinehint mustprogress uwtable
define linkonce_odr void @_ZSt8_DestroyIPhEvT_S1_(ptr noundef %0, ptr noundef %1) #2 comdat {
  %3 = alloca ptr, align 8
  %4 = alloca ptr, align 8
  store ptr %0, ptr %3, align 8, !tbaa !21
  store ptr %1, ptr %4, align 8, !tbaa !21
  %5 = load ptr, ptr %3, align 8, !tbaa !21
  %6 = load ptr, ptr %4, align 8, !tbaa !21
  call void @_ZNSt12_Destroy_auxILb1EE9__destroyIPhEEvT_S3_(ptr noundef %5, ptr noundef %6)
  ret void
}

; Function Attrs: mustprogress nounwind uwtable
define linkonce_odr void @_ZNSt12_Vector_baseIhSaIhEE12_Vector_implC2Ev(ptr noundef nonnull align 8 dereferenceable(24) %0) unnamed_addr #5 comdat align 2 {
  %2 = alloca ptr, align 8
  store ptr %0, ptr %2, align 8, !tbaa !43
  %3 = load ptr, ptr %2, align 8
  call void @_ZNSaIhEC2Ev(ptr noundef nonnull align 1 dereferenceable(1) %3) #13
  call void @_ZNSt12_Vector_baseIhSaIhEE17_Vector_impl_dataC2Ev(ptr noundef nonnull align 8 dereferenceable(24) %3) #13
  ret void
}

; Function Attrs: noinline noreturn nounwind uwtable
define linkonce_odr hidden void @__clang_call_terminate(ptr noundef %0) #9 comdat {
  %2 = call ptr @__cxa_begin_catch(ptr %0) #13
  call void @_ZSt9terminatev() #15
  unreachable
}

; Function Attrs: mustprogress nounwind uwtable
define linkonce_odr void @_ZNSt12_Vector_baseIhSaIhEED2Ev(ptr noundef nonnull align 8 dereferenceable(24) %0) unnamed_addr #5 comdat align 2 personality ptr @__gxx_personality_v0 {
  %2 = alloca ptr, align 8
  store ptr %0, ptr %2, align 8, !tbaa !35
  %3 = load ptr, ptr %2, align 8
  %4 = getelementptr inbounds nuw %"struct.std::_Vector_base", ptr %3, i32 0, i32 0
  %5 = getelementptr inbounds nuw %"struct.std::_Vector_base<unsigned char, std::allocator<unsigned char>>::_Vector_impl_data", ptr %4, i32 0, i32 0
  %6 = load ptr, ptr %5, align 8, !tbaa !30
  %7 = getelementptr inbounds nuw %"struct.std::_Vector_base", ptr %3, i32 0, i32 0
  %8 = getelementptr inbounds nuw %"struct.std::_Vector_base<unsigned char, std::allocator<unsigned char>>::_Vector_impl_data", ptr %7, i32 0, i32 2
  %9 = load ptr, ptr %8, align 8, !tbaa !42
  %10 = getelementptr inbounds nuw %"struct.std::_Vector_base", ptr %3, i32 0, i32 0
  %11 = getelementptr inbounds nuw %"struct.std::_Vector_base<unsigned char, std::allocator<unsigned char>>::_Vector_impl_data", ptr %10, i32 0, i32 0
  %12 = load ptr, ptr %11, align 8, !tbaa !30
  %13 = ptrtoint ptr %9 to i64
  %14 = ptrtoint ptr %12 to i64
  %15 = sub i64 %13, %14
  invoke void @_ZNSt12_Vector_baseIhSaIhEE13_M_deallocateEPhm(ptr noundef nonnull align 8 dereferenceable(24) %3, ptr noundef %6, i64 noundef %15)
          to label %16 unwind label %18

16:                                               ; preds = %1
  %17 = getelementptr inbounds nuw %"struct.std::_Vector_base", ptr %3, i32 0, i32 0
  call void @_ZNSt15__new_allocatorIhED2Ev(ptr noundef nonnull align 8 dereferenceable(24) %17) #13
  ret void

18:                                               ; preds = %1
  %19 = landingpad { ptr, i32 }
          catch ptr null
  %20 = extractvalue { ptr, i32 } %19, 0
  call void @__clang_call_terminate(ptr %20) #15
  unreachable
}

; Function Attrs: inlinehint mustprogress uwtable
define linkonce_odr void @_ZSt8_DestroyIPhhEvT_S1_RSaIT0_E(ptr noundef %0, ptr noundef %1, ptr noundef nonnull align 1 dereferenceable(1) %2) #2 comdat {
  %4 = alloca ptr, align 8
  %5 = alloca ptr, align 8
  %6 = alloca ptr, align 8
  store ptr %0, ptr %4, align 8, !tbaa !21
  store ptr %1, ptr %5, align 8, !tbaa !21
  store ptr %2, ptr %6, align 8, !tbaa !33
  %7 = load ptr, ptr %4, align 8, !tbaa !21
  %8 = load ptr, ptr %5, align 8, !tbaa !21
  call void @_ZSt8_DestroyIPhEvT_S1_(ptr noundef %7, ptr noundef %8)
  ret void
}

; Function Attrs: mustprogress nounwind uwtable
define linkonce_odr noundef nonnull align 1 dereferenceable(1) ptr @_ZNSt12_Vector_baseIhSaIhEE19_M_get_Tp_allocatorEv(ptr noundef nonnull align 8 dereferenceable(24) %0) #5 comdat align 2 {
  %2 = alloca ptr, align 8
  store ptr %0, ptr %2, align 8, !tbaa !35
  %3 = load ptr, ptr %2, align 8
  %4 = getelementptr inbounds nuw %"struct.std::_Vector_base", ptr %3, i32 0, i32 0
  ret ptr %4
}

; Function Attrs: mustprogress nounwind uwtable
define linkonce_odr void @_ZNSt12_Vector_baseIhSaIhEEC2Ev(ptr noundef nonnull align 8 dereferenceable(24) %0) unnamed_addr #5 comdat align 2 {
  %2 = alloca ptr, align 8
  store ptr %0, ptr %2, align 8, !tbaa !35
  %3 = load ptr, ptr %2, align 8
  %4 = getelementptr inbounds nuw %"struct.std::_Vector_base", ptr %3, i32 0, i32 0
  call void @_ZNSt12_Vector_baseIhSaIhEE12_Vector_implC2Ev(ptr noundef nonnull align 8 dereferenceable(24) %4) #13
  ret void
}

; Function Attrs: mustprogress nounwind uwtable
define linkonce_odr void @_ZNSt6vectorIhSaIhEED2Ev(ptr noundef nonnull align 8 dereferenceable(24) %0) unnamed_addr #5 comdat align 2 personality ptr @__gxx_personality_v0 {
  %2 = alloca ptr, align 8
  store ptr %0, ptr %2, align 8, !tbaa !28
  %3 = load ptr, ptr %2, align 8
  %4 = getelementptr inbounds nuw %"struct.std::_Vector_base", ptr %3, i32 0, i32 0
  %5 = getelementptr inbounds nuw %"struct.std::_Vector_base<unsigned char, std::allocator<unsigned char>>::_Vector_impl_data", ptr %4, i32 0, i32 0
  %6 = load ptr, ptr %5, align 8, !tbaa !30
  %7 = getelementptr inbounds nuw %"struct.std::_Vector_base", ptr %3, i32 0, i32 0
  %8 = getelementptr inbounds nuw %"struct.std::_Vector_base<unsigned char, std::allocator<unsigned char>>::_Vector_impl_data", ptr %7, i32 0, i32 1
  %9 = load ptr, ptr %8, align 8, !tbaa !32
  %10 = call noundef nonnull align 1 dereferenceable(1) ptr @_ZNSt12_Vector_baseIhSaIhEE19_M_get_Tp_allocatorEv(ptr noundef nonnull align 8 dereferenceable(24) %3) #13
  invoke void @_ZSt8_DestroyIPhhEvT_S1_RSaIT0_E(ptr noundef %6, ptr noundef %9, ptr noundef nonnull align 1 dereferenceable(1) %10)
          to label %11 unwind label %12

11:                                               ; preds = %1
  call void @_ZNSt12_Vector_baseIhSaIhEED2Ev(ptr noundef nonnull align 8 dereferenceable(24) %3) #13
  ret void

12:                                               ; preds = %1
  %13 = landingpad { ptr, i32 }
          catch ptr null
  %14 = extractvalue { ptr, i32 } %13, 0
  call void @__clang_call_terminate(ptr %14) #15
  unreachable
}

; Function Attrs: mustprogress nounwind uwtable
define linkonce_odr void @_ZNSt6vectorIhSaIhEEC2Ev(ptr noundef nonnull align 8 dereferenceable(24) %0) unnamed_addr #5 comdat align 2 {
  %2 = alloca ptr, align 8
  store ptr %0, ptr %2, align 8, !tbaa !28
  %3 = load ptr, ptr %2, align 8
  call void @_ZNSt12_Vector_baseIhSaIhEEC2Ev(ptr noundef nonnull align 8 dereferenceable(24) %3) #13
  ret void
}

; Function Attrs: inlinehint mustprogress nounwind uwtable
define linkonce_odr void @_ZN3gmx19MrcDensityMapHeaderD2Ev(ptr noundef nonnull align 8 dereferenceable(1040) %0) unnamed_addr #3 comdat align 2 {
  %2 = alloca ptr, align 8
  store ptr %0, ptr %2, align 8, !tbaa !9
  %3 = load ptr, ptr %2, align 8
  %4 = getelementptr inbounds nuw %"struct.gmx::MrcDensityMapHeader", ptr %3, i32 0, i32 13
  call void @_ZNSt6vectorIhSaIhEED2Ev(ptr noundef nonnull align 8 dereferenceable(24) %4) #13
  ret void
}

; Function Attrs: inlinehint mustprogress nounwind uwtable
define linkonce_odr void @_ZN3gmx19MrcDensityMapHeaderC2Ev(ptr noundef nonnull align 8 dereferenceable(1040) %0) unnamed_addr #3 comdat align 2 {
  %2 = alloca ptr, align 8
  store ptr %0, ptr %2, align 8, !tbaa !9
  %3 = load ptr, ptr %2, align 8
  %4 = getelementptr inbounds nuw %"struct.gmx::MrcDensityMapHeader", ptr %3, i32 0, i32 0
  store i32 1, ptr %4, align 8, !tbaa !83
  %5 = getelementptr inbounds nuw %"struct.gmx::MrcDensityMapHeader", ptr %3, i32 0, i32 1
  store i32 2, ptr %5, align 4, !tbaa !97
  %6 = getelementptr inbounds nuw %"struct.gmx::MrcDensityMapHeader", ptr %3, i32 0, i32 2
  %7 = getelementptr inbounds nuw %"struct.std::array", ptr %6, i32 0, i32 0
  store i8 77, ptr %7, align 1, !tbaa !23
  %8 = getelementptr inbounds i8, ptr %7, i64 1
  store i8 65, ptr %8, align 1, !tbaa !23
  %9 = getelementptr inbounds i8, ptr %7, i64 2
  store i8 80, ptr %9, align 1, !tbaa !23
  %10 = getelementptr inbounds i8, ptr %7, i64 3
  store i8 32, ptr %10, align 1, !tbaa !23
  %11 = getelementptr inbounds nuw %"struct.gmx::MrcDensityMapHeader", ptr %3, i32 0, i32 3
  %12 = getelementptr inbounds nuw %"struct.std::array.0", ptr %11, i32 0, i32 0
  call void @llvm.memset.p0.i64(ptr align 4 %12, i8 0, i64 60, i1 false)
  %13 = getelementptr inbounds nuw %"struct.gmx::MrcDensityMapHeader", ptr %3, i32 0, i32 4
  %14 = getelementptr inbounds nuw %"struct.gmx::CrystallographicLabels", ptr %13, i32 0, i32 0
  store i32 0, ptr %14, align 8, !tbaa !98
  %15 = getelementptr inbounds nuw %"struct.gmx::CrystallographicLabels", ptr %13, i32 0, i32 1
  %16 = getelementptr inbounds nuw %"struct.std::array.1", ptr %15, i32 0, i32 0
  call void @llvm.memset.p0.i64(ptr align 4 %16, i8 0, i64 800, i1 false)
  %17 = getelementptr inbounds %"struct.std::array.2", ptr %16, i64 10
  br label %18

18:                                               ; preds = %18, %1
  %19 = phi ptr [ %16, %1 ], [ %20, %18 ]
  %20 = getelementptr inbounds %"struct.std::array.2", ptr %19, i64 1
  %21 = icmp eq ptr %20, %17
  br i1 %21, label %22, label %18

22:                                               ; preds = %18
  %23 = getelementptr inbounds nuw %"struct.gmx::MrcDensityMapHeader", ptr %3, i32 0, i32 5
  %24 = getelementptr inbounds nuw %"struct.std::array.3", ptr %23, i32 0, i32 0
  store float 1.000000e+00, ptr %24, align 4, !tbaa !81
  %25 = getelementptr inbounds float, ptr %24, i64 1
  store float 1.000000e+00, ptr %25, align 4, !tbaa !81
  %26 = getelementptr inbounds float, ptr %24, i64 2
  store float 1.000000e+00, ptr %26, align 4, !tbaa !81
  %27 = getelementptr inbounds nuw %"struct.gmx::MrcDensityMapHeader", ptr %3, i32 0, i32 6
  %28 = getelementptr inbounds nuw %"struct.std::array.3", ptr %27, i32 0, i32 0
  store float 9.000000e+01, ptr %28, align 4, !tbaa !81
  %29 = getelementptr inbounds float, ptr %28, i64 1
  store float 9.000000e+01, ptr %29, align 4, !tbaa !81
  %30 = getelementptr inbounds float, ptr %28, i64 2
  store float 9.000000e+01, ptr %30, align 4, !tbaa !81
  %31 = getelementptr inbounds nuw %"struct.gmx::MrcDensityMapHeader", ptr %3, i32 0, i32 7
  %32 = getelementptr inbounds nuw %"struct.std::array.4", ptr %31, i32 0, i32 0
  store i32 0, ptr %32, align 4, !tbaa !13
  %33 = getelementptr inbounds i32, ptr %32, i64 1
  store i32 1, ptr %33, align 4, !tbaa !13
  %34 = getelementptr inbounds i32, ptr %32, i64 2
  store i32 2, ptr %34, align 4, !tbaa !13
  %35 = getelementptr inbounds nuw %"struct.gmx::MrcDensityMapHeader", ptr %3, i32 0, i32 8
  %36 = getelementptr inbounds nuw %"struct.std::array.4", ptr %35, i32 0, i32 0
  call void @llvm.memset.p0.i64(ptr align 8 %36, i8 0, i64 12, i1 false)
  %37 = getelementptr inbounds nuw %"struct.gmx::MrcDensityMapHeader", ptr %3, i32 0, i32 9
  %38 = getelementptr inbounds nuw %"struct.std::array.4", ptr %37, i32 0, i32 0
  call void @llvm.memset.p0.i64(ptr align 4 %38, i8 0, i64 12, i1 false)
  %39 = getelementptr inbounds nuw %"struct.gmx::MrcDensityMapHeader", ptr %3, i32 0, i32 10
  %40 = getelementptr inbounds nuw %"struct.std::array.4", ptr %39, i32 0, i32 0
  call void @llvm.memset.p0.i64(ptr align 8 %40, i8 0, i64 12, i1 false)
  %41 = getelementptr inbounds nuw %"struct.gmx::MrcDensityMapHeader", ptr %3, i32 0, i32 11
  %42 = getelementptr inbounds nuw %"struct.gmx::MrcDataStatistics", ptr %41, i32 0, i32 0
  store float 0.000000e+00, ptr %42, align 4, !tbaa !99
  %43 = getelementptr inbounds nuw %"struct.gmx::MrcDataStatistics", ptr %41, i32 0, i32 1
  store float 0.000000e+00, ptr %43, align 4, !tbaa !100
  %44 = getelementptr inbounds nuw %"struct.gmx::MrcDataStatistics", ptr %41, i32 0, i32 2
  store float 0.000000e+00, ptr %44, align 4, !tbaa !101
  %45 = getelementptr inbounds nuw %"struct.gmx::MrcDataStatistics", ptr %41, i32 0, i32 3
  store float 0.000000e+00, ptr %45, align 4, !tbaa !102
  %46 = getelementptr inbounds nuw %"struct.gmx::MrcDensityMapHeader", ptr %3, i32 0, i32 12
  %47 = getelementptr inbounds nuw %"struct.gmx::MrcDensitySkewData", ptr %46, i32 0, i32 0
  store i8 0, ptr %47, align 4, !tbaa !103
  %48 = getelementptr inbounds nuw %"struct.gmx::MrcDensitySkewData", ptr %46, i32 0, i32 1
  %49 = getelementptr inbounds nuw %"struct.std::array.5", ptr %48, i32 0, i32 0
  call void @llvm.memset.p0.i64(ptr align 4 %49, i8 0, i64 36, i1 false)
  %50 = getelementptr inbounds nuw %"struct.gmx::MrcDensitySkewData", ptr %46, i32 0, i32 2
  %51 = getelementptr inbounds nuw %"struct.std::array.3", ptr %50, i32 0, i32 0
  call void @llvm.memset.p0.i64(ptr align 4 %51, i8 0, i64 12, i1 false)
  %52 = getelementptr inbounds nuw %"struct.gmx::MrcDensityMapHeader", ptr %3, i32 0, i32 13
  call void @llvm.memset.p0.i64(ptr align 8 %52, i8 0, i64 24, i1 false)
  call void @_ZNSt6vectorIhSaIhEEC2Ev(ptr noundef nonnull align 8 dereferenceable(24) %52) #13
  ret void
}

; Function Attrs: mustprogress uwtable
define void @_ZN3gmx30deserializeMrcDensityMapHeaderEPNS_11ISerializerE(ptr dead_on_unwind noalias writable sret(%"struct.gmx::MrcDensityMapHeader") align 8 %0, ptr noundef %1) #0 personality ptr @__gxx_personality_v0 {
  %3 = alloca ptr, align 8
  %4 = alloca ptr, align 8
  %5 = alloca i1, align 1
  %6 = alloca ptr, align 8
  %7 = alloca i32, align 4
  store ptr %0, ptr %3, align 8
  store ptr %1, ptr %4, align 8, !tbaa !4
  store i1 false, ptr %5, align 1
  call void @_ZN3gmx19MrcDensityMapHeaderC2Ev(ptr noundef nonnull align 8 dereferenceable(1040) %0) #13
  %8 = load ptr, ptr %4, align 8, !tbaa !4
  invoke void @_ZN3gmx12_GLOBAL__N_121doMrcDensityMapHeaderEPNS_11ISerializerEPNS_19MrcDensityMapHeaderE(ptr noundef %8, ptr noundef %0)
          to label %9 unwind label %11

9:                                                ; preds = %2
  store i1 true, ptr %5, align 1
  %10 = load i1, ptr %5, align 1
  br i1 %10, label %16, label %15

11:                                               ; preds = %2
  %12 = landingpad { ptr, i32 }
          cleanup
  %13 = extractvalue { ptr, i32 } %12, 0
  store ptr %13, ptr %6, align 8
  %14 = extractvalue { ptr, i32 } %12, 1
  store i32 %14, ptr %7, align 4
  call void @_ZN3gmx19MrcDensityMapHeaderD2Ev(ptr noundef nonnull align 8 dereferenceable(1040) %0) #13
  br label %17

15:                                               ; preds = %9
  call void @_ZN3gmx19MrcDensityMapHeaderD2Ev(ptr noundef nonnull align 8 dereferenceable(1040) %0) #13
  br label %16

16:                                               ; preds = %15, %9
  ret void

17:                                               ; preds = %11
  %18 = load ptr, ptr %6, align 8
  %19 = load i32, ptr %7, align 4
  %20 = insertvalue { ptr, i32 } poison, ptr %18, 0
  %21 = insertvalue { ptr, i32 } %20, i32 %19, 1
  resume { ptr, i32 } %21
}