; Function Attrs: mustprogress uwtable
define void @_ZN3gmx30deserializeMrcDensityMapHeaderEPNS_11ISerializerE(ptr dead_on_unwind noalias writable sret(%"struct.gmx::MrcDensityMapHeader") align 8 initializes((0, 965), (968, 1040)) %0, ptr noundef %1) local_unnamed_addr #0 personality ptr @__gxx_personality_v0 {
  store i32 1, ptr %0, align 8, !tbaa !29
  %3 = getelementptr inbounds nuw i8, ptr %0, i64 4
  store i32 2, ptr %3, align 4, !tbaa !43
  %4 = getelementptr inbounds nuw i8, ptr %0, i64 8
  store i8 77, ptr %4, align 8, !tbaa !28
  %5 = getelementptr inbounds nuw i8, ptr %0, i64 9
  store i8 65, ptr %5, align 1, !tbaa !28
  %6 = getelementptr inbounds nuw i8, ptr %0, i64 10
  store i8 80, ptr %6, align 2, !tbaa !28
  %7 = getelementptr inbounds nuw i8, ptr %0, i64 11
  store i8 32, ptr %7, align 1, !tbaa !28
  %8 = getelementptr inbounds nuw i8, ptr %0, i64 12
  %9 = getelementptr inbounds nuw i8, ptr %0, i64 876
  tail call void @llvm.memset.p0.i64(ptr noundef nonnull align 4 dereferenceable(864) %8, i8 0, i64 864, i1 false)
  store float 1.000000e+00, ptr %9, align 4, !tbaa !25
  %10 = getelementptr inbounds nuw i8, ptr %0, i64 880
  store float 1.000000e+00, ptr %10, align 8, !tbaa !25
  %11 = getelementptr inbounds nuw i8, ptr %0, i64 884
  store float 1.000000e+00, ptr %11, align 4, !tbaa !25
  %12 = getelementptr inbounds nuw i8, ptr %0, i64 888
  store float 9.000000e+01, ptr %12, align 8, !tbaa !25
  %13 = getelementptr inbounds nuw i8, ptr %0, i64 892
  store float 9.000000e+01, ptr %13, align 4, !tbaa !25
  %14 = getelementptr inbounds nuw i8, ptr %0, i64 896
  store float 9.000000e+01, ptr %14, align 8, !tbaa !25
  %15 = getelementptr inbounds nuw i8, ptr %0, i64 900
  store i32 0, ptr %15, align 4, !tbaa !17
  %16 = getelementptr inbounds nuw i8, ptr %0, i64 904
  store i32 1, ptr %16, align 8, !tbaa !17
  %17 = getelementptr inbounds nuw i8, ptr %0, i64 908
  store i32 2, ptr %17, align 4, !tbaa !17
  %18 = getelementptr inbounds nuw i8, ptr %0, i64 912
  %19 = getelementptr inbounds nuw i8, ptr %0, i64 968
  tail call void @llvm.memset.p0.i64(ptr noundef nonnull align 8 dereferenceable(53) %18, i8 0, i64 53, i1 false)
  tail call void @llvm.memset.p0.i64(ptr noundef nonnull align 8 dereferenceable(72) %19, i8 0, i64 72, i1 false)
  invoke fastcc void @_ZN3gmx12_GLOBAL__N_121doMrcDensityMapHeaderEPNS_11ISerializerEPNS_19MrcDensityMapHeaderE(ptr noundef %1, ptr noundef nonnull %0)
          to label %30 unwind label %20

20:                                               ; preds = %2
  %21 = landingpad { ptr, i32 }
          cleanup
  %22 = getelementptr inbounds nuw i8, ptr %0, i64 1016
  %23 = load ptr, ptr %22, align 8, !tbaa !10
  %.not.i.i.i.i = icmp eq ptr %23, null
  br i1 %.not.i.i.i.i, label %_ZN3gmx19MrcDensityMapHeaderD2Ev.exit, label %24

24:                                               ; preds = %20
  %25 = getelementptr inbounds nuw i8, ptr %0, i64 1032
  %26 = load ptr, ptr %25, align 8, !tbaa !11
  %27 = ptrtoint ptr %26 to i64
  %28 = ptrtoint ptr %23 to i64
  %29 = sub i64 %27, %28
  tail call void @_ZdlPvm(ptr noundef nonnull %23, i64 noundef %29) #12
  br label %_ZN3gmx19MrcDensityMapHeaderD2Ev.exit

_ZN3gmx19MrcDensityMapHeaderD2Ev.exit:            ; preds = %20, %24
  resume { ptr, i32 } %21

30:                                               ; preds = %2
  ret void
}